; Function Attrs: mustprogress uwtable
define void @_ZN6casadi11GenericTypeC2Ex(ptr noundef nonnull align 8 dereferenceable(8) initializes((0, 8)) %0, i64 noundef %1) unnamed_addr #3 align 2 personality ptr @__gxx_personality_v0 {
  store ptr null, ptr %0, align 8, !tbaa !180
  %3 = invoke noalias noundef nonnull dereferenceable(32) ptr @_Znwm(i64 noundef 32) #27
          to label %4 unwind label %8

4:                                                ; preds = %2
  %5 = getelementptr inbounds nuw i8, ptr %3, i64 8
  tail call void @llvm.memset.p0.i64(ptr noundef nonnull align 8 dereferenceable(16) %5, i8 0, i64 16, i1 false)
  store ptr getelementptr inbounds nuw inrange(-16, 48) (i8, ptr @_ZTVN6casadi19GenericTypeInternalILNS_6TypeIDE2ExEE, i64 16), ptr %3, align 8, !tbaa !3
  %6 = getelementptr inbounds nuw i8, ptr %3, i64 24
  store i64 %1, ptr %6, align 8, !tbaa !190
  invoke void @_ZN6casadi13GenericSharedINS_12SharedObjectENS_20SharedObjectInternalEE3ownEPS2_(ptr noundef nonnull align 8 dereferenceable(8) %0, ptr noundef nonnull %3)
          to label %7 unwind label %8

7:                                                ; preds = %4
  ret void

8:                                                ; preds = %4, %2
  %9 = landingpad { ptr, i32 }
          cleanup
  invoke void @_ZN6casadi13GenericSharedINS_12SharedObjectENS_20SharedObjectInternalEE10count_downEv(ptr noundef nonnull align 8 dereferenceable(8) %0)
          to label %_ZN6casadi13GenericSharedINS_12SharedObjectENS_20SharedObjectInternalEED2Ev.exit unwind label %10

10:                                               ; preds = %8
  %11 = landingpad { ptr, i32 }
          catch ptr null
  %12 = extractvalue { ptr, i32 } %11, 0
  tail call void @__clang_call_terminate(ptr %12) #25
  unreachable

_ZN6casadi13GenericSharedINS_12SharedObjectENS_20SharedObjectInternalEED2Ev.exit: ; preds = %8
  resume { ptr, i32 } %9
}